(dp0
I0
I0
sI1
I1
sI2
I2
sI3
I3
sI4
I1
sI5
I5
sI6
I3
sI7
I7
sI8
I2
sI9
I3
sI10
I10
sI11
I11
sI12
I12
sI13
I13
sI14
I14
sI15
I15
sI16
I16
sI17
I17
sI18
I18
sI19
I19
sI20
I17
sI21
I21
sI22
I19
sI23
I23
sI24
I18
sI25
I19
sI26
I26
sI27
I27
sI28
I28
sI29
I29
sI30
I30
sI31
I31
sI32
I2
sI33
I12
sI34
I10
sI35
I14
sI36
I3
sI37
I13
sI38
I11
sI39
I15
sI40
I40
sI41
I41
sI42
I42
sI43
I43
sI44
I41
sI45
I45
sI46
I43
sI47
I47
sI48
I18
sI49
I28
sI50
I26
sI51
I30
sI52
I19
sI53
I29
sI54
I27
sI55
I31
sI56
I56
sI57
I57
sI58
I58
sI59
I59
sI60
I57
sI61
I61
sI62
I59
sI63
I63
sI64
I1
sI65
I5
sI66
I12
sI67
I13
sI68
I68
sI69
I69
sI70
I70
sI71
I71
sI72
I3
sI73
I7
sI74
I14
sI75
I15
sI76
I70
sI77
I71
sI78
I78
sI79
I79
sI80
I17
sI81
I21
sI82
I28
sI83
I29
sI84
I84
sI85
I85
sI86
I86
sI87
I87
sI88
I19
sI89
I23
sI90
I30
sI91
I31
sI92
I86
sI93
I87
sI94
I94
sI95
I95
sI96
I12
sI97
I97
sI98
I98
sI99
I99
sI100
I70
sI101
I101
sI102
I102
sI103
I103
sI104
I41
sI105
I105
sI106
I106
sI107
I107
sI108
I108
sI109
I109
sI110
I110
sI111
I111
sI112
I28
sI113
I113
sI114
I114
sI115
I115
sI116
I86
sI117
I117
sI118
I118
sI119
I119
sI120
I57
sI121
I121
sI122
I122
sI123
I123
sI124
I124
sI125
I125
sI126
I126
sI127
I127
sI128
I2
sI129
I12
sI130
I40
sI131
I41
sI132
I12
sI133
I97
sI134
I41
sI135
I105
sI136
I10
sI137
I14
sI138
I42
sI139
I43
sI140
I98
sI141
I99
sI142
I106
sI143
I107
sI144
I18
sI145
I28
sI146
I56
sI147
I57
sI148
I28
sI149
I113
sI150
I57
sI151
I121
sI152
I26
sI153
I30
sI154
I58
sI155
I59
sI156
I114
sI157
I115
sI158
I122
sI159
I123
sI160
I10
sI161
I98
sI162
I42
sI163
I106
sI164
I14
sI165
I99
sI166
I43
sI167
I107
sI168
I42
sI169
I106
sI170
I170
sI171
I171
sI172
I106
sI173
I173
sI174
I171
sI175
I175
sI176
I26
sI177
I114
sI178
I58
sI179
I122
sI180
I30
sI181
I115
sI182
I59
sI183
I123
sI184
I58
sI185
I122
sI186
I186
sI187
I187
sI188
I122
sI189
I189
sI190
I187
sI191
I191
sI192
I3
sI193
I13
sI194
I41
sI195
I45
sI196
I70
sI197
I101
sI198
I108
sI199
I109
sI200
I11
sI201
I15
sI202
I43
sI203
I47
sI204
I102
sI205
I103
sI206
I110
sI207
I111
sI208
I19
sI209
I29
sI210
I57
sI211
I61
sI212
I86
sI213
I117
sI214
I124
sI215
I125
sI216
I27
sI217
I31
sI218
I59
sI219
I63
sI220
I118
sI221
I119
sI222
I126
sI223
I127
sI224
I14
sI225
I99
sI226
I106
sI227
I173
sI228
I78
sI229
I229
sI230
I110
sI231
I231
sI232
I43
sI233
I107
sI234
I171
sI235
I175
sI236
I110
sI237
I231
sI238
I238
sI239
I239
sI240
I30
sI241
I115
sI242
I122
sI243
I189
sI244
I94
sI245
I245
sI246
I126
sI247
I247
sI248
I59
sI249
I123
sI250
I187
sI251
I191
sI252
I126
sI253
I247
sI254
I254
sI255
I255
sI256
I1
sI257
I68
sI258
I12
sI259
I70
sI260
I5
sI261
I69
sI262
I13
sI263
I71
sI264
I12
sI265
I70
sI266
I98
sI267
I102
sI268
I97
sI269
I101
sI270
I99
sI271
I103
sI272
I17
sI273
I84
sI274
I28
sI275
I86
sI276
I21
sI277
I85
sI278
I29
sI279
I87
sI280
I28
sI281
I86
sI282
I114
sI283
I118
sI284
I113
sI285
I117
sI286
I115
sI287
I119
sI288
I3
sI289
I70
sI290
I14
sI291
I78
sI292
I7
sI293
I71
sI294
I15
sI295
I79
sI296
I41
sI297
I108
sI298
I106
sI299
I110
sI300
I105
sI301
I109
sI302
I107
sI303
I111
sI304
I19
sI305
I86
sI306
I30
sI307
I94
sI308
I23
sI309
I87
sI310
I31
sI311
I95
sI312
I57
sI313
I124
sI314
I122
sI315
I126
sI316
I121
sI317
I125
sI318
I123
sI319
I127
sI320
I5
sI321
I69
sI322
I97
sI323
I101
sI324
I69
sI325
I325
sI326
I101
sI327
I327
sI328
I13
sI329
I71
sI330
I99
sI331
I103
sI332
I101
sI333
I327
sI334
I229
sI335
I335
sI336
I21
sI337
I85
sI338
I113
sI339
I117
sI340
I85
sI341
I341
sI342
I117
sI343
I343
sI344
I29
sI345
I87
sI346
I115
sI347
I119
sI348
I117
sI349
I343
sI350
I245
sI351
I351
sI352
I13
sI353
I101
sI354
I99
sI355
I229
sI356
I71
sI357
I327
sI358
I103
sI359
I335
sI360
I45
sI361
I109
sI362
I173
sI363
I231
sI364
I109
sI365
I365
sI366
I231
sI367
I367
sI368
I29
sI369
I117
sI370
I115
sI371
I245
sI372
I87
sI373
I343
sI374
I119
sI375
I351
sI376
I61
sI377
I125
sI378
I189
sI379
I247
sI380
I125
sI381
I381
sI382
I247
sI383
I383
sI384
I3
sI385
I70
sI386
I41
sI387
I108
sI388
I13
sI389
I101
sI390
I45
sI391
I109
sI392
I14
sI393
I78
sI394
I106
sI395
I110
sI396
I99
sI397
I229
sI398
I173
sI399
I231
sI400
I19
sI401
I86
sI402
I57
sI403
I124
sI404
I29
sI405
I117
sI406
I61
sI407
I125
sI408
I30
sI409
I94
sI410
I122
sI411
I126
sI412
I115
sI413
I245
sI414
I189
sI415
I247
sI416
I11
sI417
I102
sI418
I43
sI419
I110
sI420
I15
sI421
I103
sI422
I47
sI423
I111
sI424
I43
sI425
I110
sI426
I171
sI427
I238
sI428
I107
sI429
I231
sI430
I175
sI431
I239
sI432
I27
sI433
I118
sI434
I59
sI435
I126
sI436
I31
sI437
I119
sI438
I63
sI439
I127
sI440
I59
sI441
I126
sI442
I187
sI443
I254
sI444
I123
sI445
I247
sI446
I191
sI447
I255
sI448
I7
sI449
I71
sI450
I105
sI451
I109
sI452
I71
sI453
I327
sI454
I109
sI455
I365
sI456
I15
sI457
I79
sI458
I107
sI459
I111
sI460
I103
sI461
I335
sI462
I231
sI463
I367
sI464
I23
sI465
I87
sI466
I121
sI467
I125
sI468
I87
sI469
I343
sI470
I125
sI471
I381
sI472
I31
sI473
I95
sI474
I123
sI475
I127
sI476
I119
sI477
I351
sI478
I247
sI479
I383
sI480
I15
sI481
I103
sI482
I107
sI483
I231
sI484
I79
sI485
I335
sI486
I111
sI487
I367
sI488
I47
sI489
I111
sI490
I175
sI491
I239
sI492
I111
sI493
I367
sI494
I239
sI495
I495
sI496
I31
sI497
I119
sI498
I123
sI499
I247
sI500
I95
sI501
I351
sI502
I127
sI503
I383
sI504
I63
sI505
I127
sI506
I191
sI507
I255
sI508
I127
sI509
I383
sI510
I255
sI511
I511
s.